; Function Attrs: mustprogress uwtable
define hidden noundef ptr @_Z34pj_projection_specific_setup_stereP8PJconsts(ptr noundef %0) local_unnamed_addr #0 {
  %2 = tail call noalias dereferenceable_or_null(40) ptr @calloc(i64 noundef 1, i64 noundef 40) #7
  %3 = icmp eq ptr %2, null
  br i1 %3, label %4, label %6

4:                                                ; preds = %1
  %5 = tail call noundef ptr @_Z21pj_default_destructorP8PJconstsi(ptr noundef %0, i32 noundef 4096)
  br label %21

6:                                                ; preds = %1
  %7 = getelementptr inbounds nuw i8, ptr %0, i64 88
  store ptr %2, ptr %7, align 8, !tbaa !3
  %8 = load ptr, ptr %0, align 8, !tbaa !36
  %9 = getelementptr inbounds nuw i8, ptr %0, i64 24
  %10 = load ptr, ptr %9, align 8, !tbaa !37
  %11 = tail call i64 @_Z8pj_paramP6pj_ctxP8ARG_listPKc(ptr noundef %8, ptr noundef %10, ptr noundef nonnull @.str.1)
  %12 = and i64 %11, 4294967295
  %.not = icmp eq i64 %12, 0
  br i1 %.not, label %18, label %13

13:                                               ; preds = %6
  %14 = load ptr, ptr %0, align 8, !tbaa !36
  %15 = load ptr, ptr %9, align 8, !tbaa !37
  %16 = tail call i64 @_Z8pj_paramP6pj_ctxP8ARG_listPKc(ptr noundef %14, ptr noundef %15, ptr noundef nonnull @.str.2)
  %17 = bitcast i64 %16 to double
  br label %18

18:                                               ; preds = %6, %13
  %19 = phi double [ %17, %13 ], [ 0x3FF921FB54442D18, %6 ]
  store double %19, ptr %2, align 8, !tbaa !38
  %20 = tail call fastcc noundef ptr @_ZL11stere_setupP8PJconsts(ptr noundef nonnull %0)
  br label %21

21:                                               ; preds = %18, %4
  %.0 = phi ptr [ %5, %4 ], [ %0, %18 ]
  ret ptr %.0
}